(dp0
S'link'
p1
S'https://google.com'
p2
sS'fhjhj'
p3
c__builtin__
set
p4
((lp5
S'rthjjy'
p6
aS'ghhj'
p7
aS'dgfhhj'
p8
aS'ryhtj'
p9
aS'345fggf'
p10
atp11
Rp12
sS'num'
p13
(lp14
I2
aI3
aI5
aI6
aI7
aI8
asS'sdsfv'
p15
(S'sam'
p16
S'hrh'
p17
S'efgfb'
p18
S'lkaf'
p19
tp20
s.